target datalayout = "e-m:e-p270:32:32-p271:32:32-p272:64:64-i64:64-i128:128-f80:128-n8:16:32:64-S128"
target triple = "x86_64-pc-linux-gnu"

%"class.casadi::Slice" = type { i64, i64, i64 }

@_ZN6casadi5SliceC1Exxx = unnamed_addr alias void (ptr, i64, i64, i64), ptr @_ZN6casadi5SliceC2Exxx

; Function Attrs: mustprogress nounwind uwtable
define linkonce_odr hidden noundef i64 @_ZNSt14numeric_limitsIxE3maxEv() #4 comdat align 2 {
  ret i64 9223372036854775807
}

; Function Attrs: mustprogress nounwind uwtable
define linkonce_odr hidden noundef i64 @_ZNSt14numeric_limitsIxE3minEv() #4 comdat align 2 {
  ret i64 -9223372036854775808
}

; Function Attrs: mustprogress uwtable
define void @_ZNK6casadi5SlicemiEx(ptr dead_on_unwind noalias writable sret(%"class.casadi::Slice") align 8 %0, ptr noundef nonnull align 8 dereferenceable(24) %1, i64 noundef %2) #5 align 2 {
  %4 = alloca ptr, align 8
  %5 = alloca i64, align 8
  store ptr %1, ptr %4, align 8
  store i64 %2, ptr %5, align 8
  %6 = load ptr, ptr %4, align 8
  %7 = getelementptr inbounds %"class.casadi::Slice", ptr %6, i32 0, i32 0
  %8 = load i64, ptr %7, align 8
  %9 = call noundef i64 @_ZNSt14numeric_limitsIxE3minEv() #3
  %10 = icmp eq i64 %8, %9
  br i1 %10, label %11, label %14

11:                                               ; preds = %3
  %12 = getelementptr inbounds %"class.casadi::Slice", ptr %6, i32 0, i32 0
  %13 = load i64, ptr %12, align 8
  br label %19

14:                                               ; preds = %3
  %15 = getelementptr inbounds %"class.casadi::Slice", ptr %6, i32 0, i32 0
  %16 = load i64, ptr %15, align 8
  %17 = load i64, ptr %5, align 8
  %18 = sub nsw i64 %16, %17
  br label %19

19:                                               ; preds = %14, %11
  %20 = phi i64 [ %13, %11 ], [ %18, %14 ]
  %21 = getelementptr inbounds %"class.casadi::Slice", ptr %6, i32 0, i32 1
  %22 = load i64, ptr %21, align 8
  %23 = call noundef i64 @_ZNSt14numeric_limitsIxE3maxEv() #3
  %24 = icmp eq i64 %22, %23
  br i1 %24, label %25, label %28

25:                                               ; preds = %19
  %26 = getelementptr inbounds %"class.casadi::Slice", ptr %6, i32 0, i32 1
  %27 = load i64, ptr %26, align 8
  br label %33

28:                                               ; preds = %19
  %29 = getelementptr inbounds %"class.casadi::Slice", ptr %6, i32 0, i32 1
  %30 = load i64, ptr %29, align 8
  %31 = load i64, ptr %5, align 8
  %32 = sub nsw i64 %30, %31
  br label %33

33:                                               ; preds = %28, %25
  %34 = phi i64 [ %27, %25 ], [ %32, %28 ]
  %35 = getelementptr inbounds %"class.casadi::Slice", ptr %6, i32 0, i32 2
  %36 = load i64, ptr %35, align 8
  call void @_ZN6casadi5SliceC1Exxx(ptr noundef nonnull align 8 dereferenceable(24) %0, i64 noundef %20, i64 noundef %34, i64 noundef %36)
  ret void
}