; Function Attrs: mustprogress uwtable
define void @_ZNK6casadi5SlicemiEx(ptr dead_on_unwind noalias writable sret(%"class.casadi::Slice") align 8 %0, ptr nocapture noundef nonnull readonly align 8 dereferenceable(24) %1, i64 noundef %2) local_unnamed_addr #4 align 2 {
  %4 = load i64, ptr %1, align 8
  %5 = icmp eq i64 %4, -9223372036854775808
  %6 = sub nsw i64 %4, %2
  %7 = select i1 %5, i64 -9223372036854775808, i64 %6
  %8 = getelementptr inbounds i8, ptr %1, i64 8
  %9 = load i64, ptr %8, align 8
  %10 = icmp eq i64 %9, 9223372036854775807
  %11 = sub nsw i64 %9, %2
  %12 = select i1 %10, i64 9223372036854775807, i64 %11
  %13 = getelementptr inbounds i8, ptr %1, i64 16
  %14 = load i64, ptr %13, align 8
  tail call void @_ZN6casadi5SliceC1Exxx(ptr noundef nonnull align 8 dereferenceable(24) %0, i64 noundef %7, i64 noundef %12, i64 noundef %14)
  ret void
}